; Function Attrs: nofree norecurse nosync nounwind memory(readwrite, inaccessiblemem: none) uwtable
define internal noundef i32 @ipvideo_decode_block_opcode_0xB(ptr noundef captures(none) %0, ptr readnone captures(none) %1) #6 {
  %3 = getelementptr inbounds nuw i8, ptr %0, i64 488
  %4 = getelementptr inbounds nuw i8, ptr %0, i64 536
  %5 = getelementptr inbounds nuw i8, ptr %0, i64 496
  %6 = getelementptr inbounds nuw i8, ptr %0, i64 548
  %.pre = load ptr, ptr %4, align 8, !tbaa !67
  %.pre6 = load ptr, ptr %3, align 8, !tbaa !58
  br label %7

7:                                                ; preds = %2, %7
  %8 = phi ptr [ %.pre6, %2 ], [ %17, %7 ]
  %9 = phi ptr [ %.pre, %2 ], [ %21, %7 ]
  %.05 = phi i32 [ 0, %2 ], [ %22, %7 ]
  %10 = load ptr, ptr %5, align 8, !tbaa !60
  %11 = ptrtoint ptr %10 to i64
  %12 = ptrtoint ptr %8 to i64
  %13 = sub i64 %11, %12
  %14 = tail call i64 @llvm.smin.i64(i64 %13, i64 8)
  %15 = and i64 %14, 4294967295
  tail call void @llvm.memcpy.p0.p0.i64(ptr align 1 %9, ptr align 1 %8, i64 %15, i1 false)
  %16 = load ptr, ptr %3, align 8, !tbaa !58
  %17 = getelementptr inbounds nuw i8, ptr %16, i64 %15
  store ptr %17, ptr %3, align 8, !tbaa !58
  %18 = load i32, ptr %6, align 4, !tbaa !63
  %19 = load ptr, ptr %4, align 8, !tbaa !67
  %20 = sext i32 %18 to i64
  %21 = getelementptr inbounds i8, ptr %19, i64 %20
  store ptr %21, ptr %4, align 8, !tbaa !67
  %22 = add nuw nsw i32 %.05, 1
  %exitcond.not = icmp eq i32 %22, 8
  br i1 %exitcond.not, label %23, label %7, !llvm.loop !109

23:                                               ; preds = %7
  ret i32 0
}